target datalayout = "e-m:e-p270:32:32-p271:32:32-p272:64:64-i64:64-i128:128-f80:128-n8:16:32:64-S128"
target triple = "x86_64-pc-linux-gnu"

%"struct.std::nothrow_t" = type { i8 }
%"class.zmq::stream_connecter_base_t" = type { %"class.zmq::own_t.base", %"class.zmq::io_object_t", ptr, i32, ptr, %"class.std::__cxx11::basic_string", ptr, i8, i8, i32, ptr }
%"class.zmq::own_t.base" = type <{ %"class.zmq::object_t.base", [4 x i8], %"struct.zmq::options_t", i8, [7 x i8], %"class.zmq::atomic_counter_t", i64, ptr, %"class.std::set.24", i32 }>
%"class.zmq::object_t.base" = type <{ ptr, ptr, i32 }>
%"struct.zmq::options_t" = type { i32, i32, i64, i8, [256 x i8], i32, i32, i32, i32, i32, i32, i32, i32, i8, %"struct.zmq::atomic_value_t", i32, i32, i32, i32, i32, i32, i64, i32, i32, i8, i32, i8, i8, i8, i8, i8, %"class.std::__cxx11::basic_string", %"class.std::__cxx11::basic_string", %"class.std::__cxx11::basic_string", i32, i32, i32, i32, %"class.std::vector", %"class.std::set", %"class.std::set", %"class.std::set.6", i32, i32, %"class.std::__cxx11::basic_string", %"class.std::__cxx11::basic_string", %"class.std::__cxx11::basic_string", [32 x i8], [32 x i8], [32 x i8], %"class.std::__cxx11::basic_string", %"class.std::__cxx11::basic_string", i32, i32, i8, i32, i8, i32, i8, i16, i32, i32, i32, %"class.std::__cxx11::basic_string", i8, i8, i8, i32, i32, i8, i32, %"class.std::map", i32, %"class.std::__cxx11::basic_string", %"class.std::__cxx11::basic_string", %"class.std::__cxx11::basic_string", %"class.std::__cxx11::basic_string", i8, %"class.std::vector.17", i8, %"class.std::vector.17", i8, %"class.std::vector.17", i8, i32, i8, i32, i32, i32, i32, i32, i8, i32 }
%"struct.zmq::atomic_value_t" = type { %"struct.std::atomic" }
%"struct.std::atomic" = type { %"struct.std::__atomic_base" }
%"struct.std::__atomic_base" = type { i32 }
%"class.std::vector" = type { %"struct.std::_Vector_base" }
%"struct.std::_Vector_base" = type { %"struct.std::_Vector_base<zmq::tcp_address_mask_t, std::allocator<zmq::tcp_address_mask_t>>::_Vector_impl" }
%"struct.std::_Vector_base<zmq::tcp_address_mask_t, std::allocator<zmq::tcp_address_mask_t>>::_Vector_impl" = type { %"struct.std::_Vector_base<zmq::tcp_address_mask_t, std::allocator<zmq::tcp_address_mask_t>>::_Vector_impl_data" }
%"struct.std::_Vector_base<zmq::tcp_address_mask_t, std::allocator<zmq::tcp_address_mask_t>>::_Vector_impl_data" = type { ptr, ptr, ptr }
%"class.std::set" = type { %"class.std::_Rb_tree" }
%"class.std::_Rb_tree" = type { %"struct.std::_Rb_tree<unsigned int, unsigned int, std::_Identity<unsigned int>, std::less<unsigned int>>::_Rb_tree_impl" }
%"struct.std::_Rb_tree<unsigned int, unsigned int, std::_Identity<unsigned int>, std::less<unsigned int>>::_Rb_tree_impl" = type { [8 x i8], %"struct.std::_Rb_tree_header" }
%"struct.std::_Rb_tree_header" = type { %"struct.std::_Rb_tree_node_base", i64 }
%"struct.std::_Rb_tree_node_base" = type { i32, ptr, ptr, ptr }
%"class.std::set.6" = type { %"class.std::_Rb_tree.7" }
%"class.std::_Rb_tree.7" = type { %"struct.std::_Rb_tree<int, int, std::_Identity<int>, std::less<int>>::_Rb_tree_impl" }
%"struct.std::_Rb_tree<int, int, std::_Identity<int>, std::less<int>>::_Rb_tree_impl" = type { [8 x i8], %"struct.std::_Rb_tree_header" }
%"class.std::map" = type { %"class.std::_Rb_tree.12" }
%"class.std::_Rb_tree.12" = type { %"struct.std::_Rb_tree<std::__cxx11::basic_string<char>, std::pair<const std::__cxx11::basic_string<char>, std::__cxx11::basic_string<char>>, std::_Select1st<std::pair<const std::__cxx11::basic_string<char>, std::__cxx11::basic_string<char>>>, std::less<std::__cxx11::basic_string<char>>>::_Rb_tree_impl" }
%"struct.std::_Rb_tree<std::__cxx11::basic_string<char>, std::pair<const std::__cxx11::basic_string<char>, std::__cxx11::basic_string<char>>, std::_Select1st<std::pair<const std::__cxx11::basic_string<char>, std::__cxx11::basic_string<char>>>, std::less<std::__cxx11::basic_string<char>>>::_Rb_tree_impl" = type { [8 x i8], %"struct.std::_Rb_tree_header" }
%"class.std::vector.17" = type { %"struct.std::_Vector_base.18" }
%"struct.std::_Vector_base.18" = type { %"struct.std::_Vector_base<unsigned char, std::allocator<unsigned char>>::_Vector_impl" }
%"struct.std::_Vector_base<unsigned char, std::allocator<unsigned char>>::_Vector_impl" = type { %"struct.std::_Vector_base<unsigned char, std::allocator<unsigned char>>::_Vector_impl_data" }
%"struct.std::_Vector_base<unsigned char, std::allocator<unsigned char>>::_Vector_impl_data" = type { ptr, ptr, ptr }
%"class.zmq::atomic_counter_t" = type { %"struct.std::atomic.22", [4 x i8] }
%"struct.std::atomic.22" = type { %"struct.std::__atomic_base.23" }
%"struct.std::__atomic_base.23" = type { i32 }
%"class.std::set.24" = type { %"class.std::_Rb_tree.25" }
%"class.std::_Rb_tree.25" = type { %"struct.std::_Rb_tree<zmq::own_t *, zmq::own_t *, std::_Identity<zmq::own_t *>, std::less<zmq::own_t *>>::_Rb_tree_impl" }
%"struct.std::_Rb_tree<zmq::own_t *, zmq::own_t *, std::_Identity<zmq::own_t *>, std::less<zmq::own_t *>>::_Rb_tree_impl" = type { [8 x i8], %"struct.std::_Rb_tree_header" }
%"class.zmq::io_object_t" = type { %"struct.zmq::i_poll_events", ptr }
%"struct.zmq::i_poll_events" = type { ptr }
%"class.std::__cxx11::basic_string" = type { %"struct.std::__cxx11::basic_string<char>::_Alloc_hider", i64, %union.anon }
%"struct.std::__cxx11::basic_string<char>::_Alloc_hider" = type { ptr }
%union.anon = type { i64, [8 x i8] }
%"struct.zmq::endpoint_uri_pair_t" = type <{ %"class.std::__cxx11::basic_string", %"class.std::__cxx11::basic_string", i32, [4 x i8] }>
%"class.zmq::own_t" = type <{ %"class.zmq::object_t.base", [4 x i8], %"struct.zmq::options_t", i8, [7 x i8], %"class.zmq::atomic_counter_t", i64, ptr, %"class.std::set.24", i32, [4 x i8] }>

@stderr = external global ptr, align 8
@.str.2 = private unnamed_addr constant [121 x i8] c"generated/home/dtcxzyw/WorkSpace/Projects/compilers/llvm-opt-benchmark/bench/libzmq/libzmq/src/stream_connecter_base.cpp\00", align 1
@_ZSt7nothrow = external global %"struct.std::nothrow_t", align 1
@.str.7 = private unnamed_addr constant [36 x i8] c"FATAL ERROR: OUT OF MEMORY (%s:%d)\0A\00", align 1
@.str.8 = private unnamed_addr constant [27 x i8] c"FATAL ERROR: OUT OF MEMORY\00", align 1

; Function Attrs: mustprogress uwtable
define void @_ZN3zmq23stream_connecter_base_t13create_engineEiRKNSt7__cxx1112basic_stringIcSt11char_traitsIcESaIcEEE(ptr noundef nonnull align 8 dereferenceable(1544) %0, i32 noundef %1, ptr noundef nonnull align 8 dereferenceable(32) %2) unnamed_addr #0 align 2 personality ptr @__gxx_personality_v0 {
  %4 = alloca ptr, align 8
  %5 = alloca i32, align 4
  %6 = alloca ptr, align 8
  %7 = alloca %"struct.zmq::endpoint_uri_pair_t", align 8
  %8 = alloca ptr, align 8
  %9 = alloca ptr, align 8
  %10 = alloca i1, align 1
  %11 = alloca ptr, align 8
  %12 = alloca i32, align 4
  %13 = alloca ptr, align 8
  %14 = alloca i1, align 1
  store ptr %0, ptr %4, align 8, !tbaa !3
  store i32 %1, ptr %5, align 4, !tbaa !90
  store ptr %2, ptr %6, align 8, !tbaa !87
  %15 = load ptr, ptr %4, align 8
  call void @llvm.lifetime.start.p0(i64 72, ptr %7) #17
  %16 = load ptr, ptr %6, align 8, !tbaa !87
  %17 = getelementptr inbounds nuw %"class.zmq::stream_connecter_base_t", ptr %15, i32 0, i32 5
  call void @_ZN3zmq19endpoint_uri_pair_tC2ERKNSt7__cxx1112basic_stringIcSt11char_traitsIcESaIcEEES8_NS_15endpoint_type_tE(ptr noundef nonnull align 8 dereferenceable(68) %7, ptr noundef nonnull align 8 dereferenceable(32) %16, ptr noundef nonnull align 8 dereferenceable(32) %17, i32 noundef 2)
  call void @llvm.lifetime.start.p0(i64 8, ptr %8) #17
  %18 = getelementptr inbounds nuw %"class.zmq::own_t", ptr %15, i32 0, i32 2
  %19 = getelementptr inbounds nuw %"struct.zmq::options_t", ptr %18, i32 0, i32 29
  %20 = load i8, ptr %19, align 1, !tbaa !95, !range !79, !noundef !80
  %21 = trunc i8 %20 to i1
  br i1 %21, label %22, label %44

22:                                               ; preds = %3
  %23 = call noalias noundef ptr @_ZnwmRKSt9nothrow_t(i64 noundef 1696, ptr noundef nonnull align 1 dereferenceable(1) @_ZSt7nothrow) #20
  %24 = icmp eq ptr %23, null
  store i1 false, ptr %10, align 1
  br i1 %24, label %29, label %25

25:                                               ; preds = %22
  store ptr %23, ptr %9, align 8
  store i1 true, ptr %10, align 1
  %26 = load i32, ptr %5, align 4, !tbaa !90
  %27 = getelementptr inbounds nuw %"class.zmq::own_t", ptr %15, i32 0, i32 2
  invoke void @_ZN3zmq12raw_engine_tC1EiRKNS_9options_tERKNS_19endpoint_uri_pair_tE(ptr noundef nonnull align 8 dereferenceable(1696) %23, i32 noundef %26, ptr noundef nonnull align 8 dereferenceable(1336) %27, ptr noundef nonnull align 8 dereferenceable(68) %7)
          to label %28 unwind label %36

28:                                               ; preds = %25
  br label %29

29:                                               ; preds = %28, %22
  %30 = phi ptr [ %23, %28 ], [ null, %22 ]
  %31 = icmp eq ptr %30, null
  br i1 %31, label %34, label %32

32:                                               ; preds = %29
  %33 = getelementptr inbounds i8, ptr %30, i64 16
  br label %34

34:                                               ; preds = %32, %29
  %35 = phi ptr [ %33, %32 ], [ null, %29 ]
  store ptr %35, ptr %8, align 8, !tbaa !96
  br label %66

36:                                               ; preds = %25
  %37 = landingpad { ptr, i32 }
          cleanup
  %38 = extractvalue { ptr, i32 } %37, 0
  store ptr %38, ptr %11, align 8
  %39 = extractvalue { ptr, i32 } %37, 1
  store i32 %39, ptr %12, align 4
  %40 = load i1, ptr %10, align 1
  br i1 %40, label %41, label %43

41:                                               ; preds = %36
  %42 = load ptr, ptr %9, align 8
  call void @_ZdlPvRKSt9nothrow_t(ptr noundef %42, ptr noundef nonnull align 1 dereferenceable(1) @_ZSt7nothrow) #21
  br label %43

43:                                               ; preds = %41, %36
  br label %97

44:                                               ; preds = %3
  %45 = call noalias noundef ptr @_ZnwmRKSt9nothrow_t(i64 noundef 1976, ptr noundef nonnull align 1 dereferenceable(1) @_ZSt7nothrow) #20
  %46 = icmp eq ptr %45, null
  store i1 false, ptr %14, align 1
  br i1 %46, label %51, label %47

47:                                               ; preds = %44
  store ptr %45, ptr %13, align 8
  store i1 true, ptr %14, align 1
  %48 = load i32, ptr %5, align 4, !tbaa !90
  %49 = getelementptr inbounds nuw %"class.zmq::own_t", ptr %15, i32 0, i32 2
  invoke void @_ZN3zmq13zmtp_engine_tC1EiRKNS_9options_tERKNS_19endpoint_uri_pair_tE(ptr noundef nonnull align 8 dereferenceable(1976) %45, i32 noundef %48, ptr noundef nonnull align 8 dereferenceable(1336) %49, ptr noundef nonnull align 8 dereferenceable(68) %7)
          to label %50 unwind label %58

50:                                               ; preds = %47
  br label %51

51:                                               ; preds = %50, %44
  %52 = phi ptr [ %45, %50 ], [ null, %44 ]
  %53 = icmp eq ptr %52, null
  br i1 %53, label %56, label %54

54:                                               ; preds = %51
  %55 = getelementptr inbounds i8, ptr %52, i64 16
  br label %56

56:                                               ; preds = %54, %51
  %57 = phi ptr [ %55, %54 ], [ null, %51 ]
  store ptr %57, ptr %8, align 8, !tbaa !96
  br label %66

58:                                               ; preds = %47
  %59 = landingpad { ptr, i32 }
          cleanup
  %60 = extractvalue { ptr, i32 } %59, 0
  store ptr %60, ptr %11, align 8
  %61 = extractvalue { ptr, i32 } %59, 1
  store i32 %61, ptr %12, align 4
  %62 = load i1, ptr %14, align 1
  br i1 %62, label %63, label %65

63:                                               ; preds = %58
  %64 = load ptr, ptr %13, align 8
  call void @_ZdlPvRKSt9nothrow_t(ptr noundef %64, ptr noundef nonnull align 1 dereferenceable(1) @_ZSt7nothrow) #21
  br label %65

65:                                               ; preds = %63, %58
  br label %97

66:                                               ; preds = %56, %34
  br label %67

67:                                               ; preds = %66
  %68 = load ptr, ptr %8, align 8, !tbaa !96
  %69 = icmp ne ptr %68, null
  %70 = xor i1 %69, true
  %71 = zext i1 %70 to i64
  %72 = call i64 @llvm.expect.i64(i64 %71, i64 0)
  %73 = icmp ne i64 %72, 0
  br i1 %73, label %74, label %85

74:                                               ; preds = %67
  %75 = load ptr, ptr @stderr, align 8, !tbaa !85
  %76 = call i32 (ptr, ptr, ...) @fprintf(ptr noundef %75, ptr noundef @.str.7, ptr noundef @.str.2, i32 noundef 159) #17
  %77 = load ptr, ptr @stderr, align 8, !tbaa !85
  %78 = invoke i32 @fflush(ptr noundef %77)
          to label %79 unwind label %81

79:                                               ; preds = %74
  invoke void @_ZN3zmq9zmq_abortEPKc(ptr noundef @.str.8)
          to label %80 unwind label %81

80:                                               ; preds = %79
  br label %85

81:                                               ; preds = %92, %91, %87, %79, %74
  %82 = landingpad { ptr, i32 }
          cleanup
  %83 = extractvalue { ptr, i32 } %82, 0
  store ptr %83, ptr %11, align 8
  %84 = extractvalue { ptr, i32 } %82, 1
  store i32 %84, ptr %12, align 4
  br label %97

85:                                               ; preds = %80, %67
  br label %86

86:                                               ; preds = %85
  br label %87

87:                                               ; preds = %86
  %88 = getelementptr inbounds nuw %"class.zmq::stream_connecter_base_t", ptr %15, i32 0, i32 10
  %89 = load ptr, ptr %88, align 8, !tbaa !84
  %90 = load ptr, ptr %8, align 8, !tbaa !96
  invoke void @_ZN3zmq8object_t11send_attachEPNS_14session_base_tEPNS_8i_engineEb(ptr noundef nonnull align 8 dereferenceable(20) %15, ptr noundef %89, ptr noundef %90, i1 noundef zeroext true)
          to label %91 unwind label %81

91:                                               ; preds = %87
  invoke void @_ZN3zmq5own_t9terminateEv(ptr noundef nonnull align 8 dereferenceable(1444) %15)
          to label %92 unwind label %81

92:                                               ; preds = %91
  %93 = getelementptr inbounds nuw %"class.zmq::stream_connecter_base_t", ptr %15, i32 0, i32 6
  %94 = load ptr, ptr %93, align 8, !tbaa !78
  %95 = load i32, ptr %5, align 4, !tbaa !90
  invoke void @_ZN3zmq13socket_base_t15event_connectedERKNS_19endpoint_uri_pair_tEi(ptr noundef nonnull align 8 dereferenceable(1825) %94, ptr noundef nonnull align 8 dereferenceable(68) %7, i32 noundef %95)
          to label %96 unwind label %81

96:                                               ; preds = %92
  call void @llvm.lifetime.end.p0(i64 8, ptr %8) #17
  call void @_ZN3zmq19endpoint_uri_pair_tD2Ev(ptr noundef nonnull align 8 dereferenceable(68) %7) #17
  call void @llvm.lifetime.end.p0(i64 72, ptr %7) #17
  ret void

97:                                               ; preds = %81, %65, %43
  call void @llvm.lifetime.end.p0(i64 8, ptr %8) #17
  call void @_ZN3zmq19endpoint_uri_pair_tD2Ev(ptr noundef nonnull align 8 dereferenceable(68) %7) #17
  call void @llvm.lifetime.end.p0(i64 72, ptr %7) #17
  br label %98

98:                                               ; preds = %97
  %99 = load ptr, ptr %11, align 8
  %100 = load i32, ptr %12, align 4
  %101 = insertvalue { ptr, i32 } poison, ptr %99, 0
  %102 = insertvalue { ptr, i32 } %101, i32 %100, 1
  resume { ptr, i32 } %102
}