; Function Attrs: mustprogress uwtable
define void @_ZN3zmq23stream_connecter_base_t13create_engineEiRKNSt7__cxx1112basic_stringIcSt11char_traitsIcESaIcEEE(ptr noundef nonnull align 8 dereferenceable(1544) %0, i32 noundef %1, ptr noundef nonnull align 8 dereferenceable(32) %2) unnamed_addr #0 align 2 personality ptr @__gxx_personality_v0 {
  %4 = alloca %"struct.zmq::endpoint_uri_pair_t", align 8
  call void @llvm.lifetime.start.p0(i64 72, ptr nonnull %4) #22
  %5 = getelementptr inbounds nuw i8, ptr %0, i64 1488
  call void @_ZN3zmq19endpoint_uri_pair_tC2ERKNSt7__cxx1112basic_stringIcSt11char_traitsIcESaIcEEES8_NS_15endpoint_type_tE(ptr noundef nonnull align 8 dereferenceable(68) %4, ptr noundef nonnull align 8 dereferenceable(32) %2, ptr noundef nonnull align 8 dereferenceable(32) %5, i32 noundef 2)
  %6 = getelementptr inbounds nuw i8, ptr %0, i64 24
  %7 = getelementptr inbounds nuw i8, ptr %0, i64 395
  %8 = load i8, ptr %7, align 1, !tbaa !87, !range !81, !noundef !82
  %9 = trunc nuw i8 %8 to i1
  br i1 %9, label %10, label %18

10:                                               ; preds = %3
  %11 = call noalias noundef dereferenceable_or_null(1696) ptr @_ZnwmRKSt9nothrow_t(i64 noundef 1696, ptr noundef nonnull align 1 dereferenceable(1) @_ZSt7nothrow) #25
  %12 = icmp eq ptr %11, null
  br i1 %12, label %select.unfold, label %13

13:                                               ; preds = %10
  invoke void @_ZN3zmq12raw_engine_tC1EiRKNS_9options_tERKNS_19endpoint_uri_pair_tE(ptr noundef nonnull align 8 dereferenceable(1696) %11, i32 noundef %1, ptr noundef nonnull align 8 dereferenceable(1336) %6, ptr noundef nonnull align 8 dereferenceable(68) %4)
          to label %14 unwind label %16

14:                                               ; preds = %13
  %15 = getelementptr inbounds nuw i8, ptr %11, i64 16
  br label %32

16:                                               ; preds = %13
  %17 = landingpad { ptr, i32 }
          cleanup
  call void @_ZdlPvRKSt9nothrow_t(ptr noundef nonnull %11, ptr noundef nonnull align 1 dereferenceable(1) @_ZSt7nothrow) #21
  br label %53

18:                                               ; preds = %3
  %19 = call noalias noundef dereferenceable_or_null(1976) ptr @_ZnwmRKSt9nothrow_t(i64 noundef 1976, ptr noundef nonnull align 1 dereferenceable(1) @_ZSt7nothrow) #25
  %20 = icmp eq ptr %19, null
  br i1 %20, label %select.unfold, label %21

21:                                               ; preds = %18
  invoke void @_ZN3zmq13zmtp_engine_tC1EiRKNS_9options_tERKNS_19endpoint_uri_pair_tE(ptr noundef nonnull align 8 dereferenceable(1976) %19, i32 noundef %1, ptr noundef nonnull align 8 dereferenceable(1336) %6, ptr noundef nonnull align 8 dereferenceable(68) %4)
          to label %22 unwind label %24

22:                                               ; preds = %21
  %23 = getelementptr inbounds nuw i8, ptr %19, i64 16
  br label %32

24:                                               ; preds = %21
  %25 = landingpad { ptr, i32 }
          cleanup
  call void @_ZdlPvRKSt9nothrow_t(ptr noundef nonnull %19, ptr noundef nonnull align 1 dereferenceable(1) @_ZSt7nothrow) #21
  br label %53

select.unfold:                                    ; preds = %18, %10
  %26 = load ptr, ptr @stderr, align 8, !tbaa !78
  %27 = call i32 (ptr, ptr, ...) @fprintf(ptr noundef %26, ptr noundef nonnull @.str.7, ptr noundef nonnull @.str.2, i32 noundef 159) #20
  %28 = load ptr, ptr @stderr, align 8, !tbaa !78
  %29 = call i32 @fflush(ptr noundef %28)
  invoke void @_ZN3zmq9zmq_abortEPKc(ptr noundef nonnull @.str.8)
          to label %32 unwind label %30

30:                                               ; preds = %36, %35, %32, %select.unfold
  %31 = landingpad { ptr, i32 }
          cleanup
  br label %53

32:                                               ; preds = %22, %14, %select.unfold
  %.021 = phi ptr [ null, %select.unfold ], [ %15, %14 ], [ %23, %22 ]
  %33 = getelementptr inbounds nuw i8, ptr %0, i64 1536
  %34 = load ptr, ptr %33, align 8, !tbaa !76
  invoke void @_ZN3zmq8object_t11send_attachEPNS_14session_base_tEPNS_8i_engineEb(ptr noundef nonnull align 8 dereferenceable(20) %0, ptr noundef %34, ptr noundef %.021, i1 noundef zeroext true)
          to label %35 unwind label %30

35:                                               ; preds = %32
  invoke void @_ZN3zmq5own_t9terminateEv(ptr noundef nonnull align 8 dereferenceable(1444) %0)
          to label %36 unwind label %30

36:                                               ; preds = %35
  %37 = getelementptr inbounds nuw i8, ptr %0, i64 1520
  %38 = load ptr, ptr %37, align 8, !tbaa !72
  invoke void @_ZN3zmq13socket_base_t15event_connectedERKNS_19endpoint_uri_pair_tEi(ptr noundef nonnull align 8 dereferenceable(1825) %38, ptr noundef nonnull align 8 dereferenceable(68) %4, i32 noundef %1)
          to label %39 unwind label %30

39:                                               ; preds = %36
  %40 = getelementptr inbounds nuw i8, ptr %4, i64 32
  %41 = load ptr, ptr %40, align 8, !tbaa !80
  %42 = getelementptr inbounds nuw i8, ptr %4, i64 48
  %43 = icmp eq ptr %41, %42
  br i1 %43, label %_ZNKSt7__cxx1112basic_stringIcSt11char_traitsIcESaIcEE11_M_is_localEv.exit.thread.i.i.i, label %_ZNKSt7__cxx1112basic_stringIcSt11char_traitsIcESaIcEE11_M_is_localEv.exit.i.i.i

_ZNKSt7__cxx1112basic_stringIcSt11char_traitsIcESaIcEE11_M_is_localEv.exit.thread.i.i.i: ; preds = %39
  %44 = getelementptr inbounds nuw i8, ptr %4, i64 40
  %45 = load i64, ptr %44, align 8, !tbaa !70
  %46 = icmp ult i64 %45, 16
  call void @llvm.assume(i1 %46)
  br label %_ZNSt7__cxx1112basic_stringIcSt11char_traitsIcESaIcEED2Ev.exit.i

_ZNKSt7__cxx1112basic_stringIcSt11char_traitsIcESaIcEE11_M_is_localEv.exit.i.i.i: ; preds = %39
  call void @_ZdlPv(ptr noundef %41) #21
  br label %_ZNSt7__cxx1112basic_stringIcSt11char_traitsIcESaIcEED2Ev.exit.i

_ZNSt7__cxx1112basic_stringIcSt11char_traitsIcESaIcEED2Ev.exit.i: ; preds = %_ZNKSt7__cxx1112basic_stringIcSt11char_traitsIcESaIcEE11_M_is_localEv.exit.i.i.i, %_ZNKSt7__cxx1112basic_stringIcSt11char_traitsIcESaIcEE11_M_is_localEv.exit.thread.i.i.i
  %47 = load ptr, ptr %4, align 8, !tbaa !80
  %48 = getelementptr inbounds nuw i8, ptr %4, i64 16
  %49 = icmp eq ptr %47, %48
  br i1 %49, label %_ZNKSt7__cxx1112basic_stringIcSt11char_traitsIcESaIcEE11_M_is_localEv.exit.thread.i.i2.i, label %_ZNKSt7__cxx1112basic_stringIcSt11char_traitsIcESaIcEE11_M_is_localEv.exit.i.i1.i

_ZNKSt7__cxx1112basic_stringIcSt11char_traitsIcESaIcEE11_M_is_localEv.exit.thread.i.i2.i: ; preds = %_ZNSt7__cxx1112basic_stringIcSt11char_traitsIcESaIcEED2Ev.exit.i
  %50 = getelementptr inbounds nuw i8, ptr %4, i64 8
  %51 = load i64, ptr %50, align 8, !tbaa !70
  %52 = icmp ult i64 %51, 16
  call void @llvm.assume(i1 %52)
  br label %_ZN3zmq19endpoint_uri_pair_tD2Ev.exit

_ZNKSt7__cxx1112basic_stringIcSt11char_traitsIcESaIcEE11_M_is_localEv.exit.i.i1.i: ; preds = %_ZNSt7__cxx1112basic_stringIcSt11char_traitsIcESaIcEED2Ev.exit.i
  call void @_ZdlPv(ptr noundef %47) #21
  br label %_ZN3zmq19endpoint_uri_pair_tD2Ev.exit

_ZN3zmq19endpoint_uri_pair_tD2Ev.exit:            ; preds = %_ZNKSt7__cxx1112basic_stringIcSt11char_traitsIcESaIcEE11_M_is_localEv.exit.thread.i.i2.i, %_ZNKSt7__cxx1112basic_stringIcSt11char_traitsIcESaIcEE11_M_is_localEv.exit.i.i1.i
  call void @llvm.lifetime.end.p0(i64 72, ptr nonnull %4) #22
  ret void

53:                                               ; preds = %24, %16, %30
  %.pn = phi { ptr, i32 } [ %31, %30 ], [ %17, %16 ], [ %25, %24 ]
  call void @_ZN3zmq19endpoint_uri_pair_tD2Ev(ptr noundef nonnull align 8 dereferenceable(68) %4) #22
  call void @llvm.lifetime.end.p0(i64 72, ptr nonnull %4) #22
  resume { ptr, i32 } %.pn
}